; ModuleID = 'bench/lief/original/Object.cpp.ll'
source_filename = "bench/lief/original/Object.cpp.ll"
target datalayout = "e-m:e-p270:32:32-p271:32:32-p272:64:64-i64:64-i128:128-f80:128-n8:16:32:64-S128"
target triple = "x86_64-pc-linux-gnu"

$_ZNK4LIEF6ObjectneERKS0_ = comdat any

@_ZTVN4LIEF6ObjectE = unnamed_addr constant { [7 x ptr] } { [7 x ptr] [ptr null, ptr @_ZTIN4LIEF6ObjectE, ptr @_ZNK4LIEF6ObjecteqERKS0_, ptr @_ZNK4LIEF6ObjectneERKS0_, ptr @_ZN4LIEF6ObjectD1Ev, ptr @_ZN4LIEF6ObjectD0Ev, ptr @__cxa_pure_virtual] }, align 8
@_ZTVN10__cxxabiv117__class_type_infoE = external global [0 x ptr]
@_ZTSN4LIEF6ObjectE = constant [15 x i8] c"N4LIEF6ObjectE\00", align 1
@_ZTIN4LIEF6ObjectE = constant { ptr, ptr } { ptr getelementptr inbounds (ptr, ptr @_ZTVN10__cxxabiv117__class_type_infoE, i64 2), ptr @_ZTSN4LIEF6ObjectE }, align 8

@_ZN4LIEF6ObjectD1Ev = unnamed_addr alias void (ptr), ptr @_ZN4LIEF6ObjectD2Ev

; Function Attrs: mustprogress nofree norecurse nosync nounwind willreturn memory(argmem: write) uwtable
define void @_ZN4LIEF6ObjectC2Ev(ptr nocapture noundef nonnull writeonly align 8 dereferenceable(8) %0) unnamed_addr #0 align 2 {
  store ptr getelementptr inbounds ({ [7 x ptr] }, ptr @_ZTVN4LIEF6ObjectE, i64 0, i32 0, i64 2), ptr %0, align 8
  ret void
}

; Function Attrs: mustprogress nofree norecurse nosync nounwind willreturn memory(argmem: write) uwtable
define void @_ZN4LIEF6ObjectC2ERKS0_(ptr nocapture noundef nonnull writeonly align 8 dereferenceable(8) %0, ptr nocapture noundef nonnull readnone align 8 dereferenceable(8) %1) unnamed_addr #0 align 2 {
  store ptr getelementptr inbounds ({ [7 x ptr] }, ptr @_ZTVN4LIEF6ObjectE, i64 0, i32 0, i64 2), ptr %0, align 8
  ret void
}

; Function Attrs: mustprogress nofree norecurse nosync nounwind willreturn memory(none) uwtable
define noundef nonnull align 8 dereferenceable(8) ptr @_ZN4LIEF6ObjectaSERKS0_(ptr noundef nonnull readnone returned align 8 dereferenceable(8) %0, ptr nocapture noundef nonnull readnone align 8 dereferenceable(8) %1) local_unnamed_addr #1 align 2 {
  ret ptr %0
}

; Function Attrs: mustprogress nofree norecurse nosync nounwind willreturn memory(none) uwtable
define void @_ZN4LIEF6ObjectD2Ev(ptr nocapture nonnull readnone align 8 %0) unnamed_addr #1 align 2 {
  ret void
}

; Function Attrs: mustprogress noreturn nounwind memory(inaccessiblemem: write) uwtable
define void @_ZN4LIEF6ObjectD0Ev(ptr nocapture nonnull readnone align 8 %0) unnamed_addr #2 align 2 {
  tail call void @llvm.trap() #6
  unreachable
}

; Function Attrs: cold noreturn nounwind memory(inaccessiblemem: write)
declare void @llvm.trap() #3

; Function Attrs: mustprogress uwtable
define noundef zeroext i1 @_ZNK4LIEF6ObjecteqERKS0_(ptr noundef nonnull align 8 dereferenceable(8) %0, ptr noundef nonnull align 8 dereferenceable(8) %1) unnamed_addr #4 align 2 {
  %3 = icmp eq ptr %0, %1
  br i1 %3, label %8, label %4

4:                                                ; preds = %2
  %5 = tail call noundef i64 @_ZN4LIEF4hashERKNS_6ObjectE(ptr noundef nonnull align 8 dereferenceable(8) %0)
  %6 = tail call noundef i64 @_ZN4LIEF4hashERKNS_6ObjectE(ptr noundef nonnull align 8 dereferenceable(8) %1)
  %7 = icmp eq i64 %5, %6
  br label %8

8:                                                ; preds = %2, %4
  %.0 = phi i1 [ %7, %4 ], [ true, %2 ]
  ret i1 %.0
}

declare noundef i64 @_ZN4LIEF4hashERKNS_6ObjectE(ptr noundef nonnull align 8 dereferenceable(8)) local_unnamed_addr #5

; Function Attrs: mustprogress uwtable
define linkonce_odr hidden noundef zeroext i1 @_ZNK4LIEF6ObjectneERKS0_(ptr noundef nonnull align 8 dereferenceable(8) %0, ptr noundef nonnull align 8 dereferenceable(8) %1) unnamed_addr #4 comdat align 2 {
  %3 = load ptr, ptr %0, align 8
  %4 = load ptr, ptr %3, align 8
  %5 = tail call noundef zeroext i1 %4(ptr noundef nonnull align 8 dereferenceable(8) %0, ptr noundef nonnull align 8 dereferenceable(8) %1)
  %6 = xor i1 %5, true
  ret i1 %6
}

declare void @__cxa_pure_virtual() unnamed_addr


!llvm.module.flags = !{!0, !1, !2, !3}

!0 = !{i32 1, !"wchar_size", i32 4}
!1 = !{i32 8, !"PIC Level", i32 2}
!2 = !{i32 7, !"uwtable", i32 2}
!3 = !{i32 7, !"frame-pointer", i32 2}
